; Function Attrs: mustprogress uwtable
define internal void @"_ZNSt17_Function_handlerIFvRN3nix21CreateRegularFileSinkEEZNS0_13copyRecursiveERNS0_14SourceAccessorERKNS0_9CanonPathERNS0_20FileSystemObjectSinkERKNSt7__cxx1112basic_stringIcSt11char_traitsIcESaIcEEEE3$_0E9_M_invokeERKSt9_Any_dataS2_"(ptr nocapture noundef nonnull readonly align 8 dereferenceable(16) %0, ptr noundef nonnull align 8 dereferenceable(8) %1) #4 align 2 personality ptr @__gxx_personality_v0 {
  %3 = alloca %"class.std::function.88", align 8
  %.val = load ptr, ptr %0, align 8
  call void @llvm.lifetime.start.p0(i64 32, ptr nonnull %3)
  %4 = load ptr, ptr %.val, align 8
  %5 = getelementptr inbounds i8, ptr %4, i64 24
  %6 = load i8, ptr %5, align 8
  %7 = and i8 %6, 1
  %.not.i.i.i = icmp eq i8 %7, 0
  br i1 %.not.i.i.i, label %12, label %8

8:                                                ; preds = %2
  %9 = load ptr, ptr %1, align 8
  %10 = getelementptr inbounds i8, ptr %9, i64 32
  %11 = load ptr, ptr %10, align 8
  tail call void %11(ptr noundef nonnull align 8 dereferenceable(8) %1)
  br label %12

12:                                               ; preds = %8, %2
  %13 = getelementptr inbounds i8, ptr %.val, i64 8
  %14 = load ptr, ptr %13, align 8
  %15 = getelementptr inbounds i8, ptr %.val, i64 16
  %16 = load ptr, ptr %15, align 8
  %17 = getelementptr inbounds i8, ptr %3, i64 16
  %18 = getelementptr inbounds i8, ptr %3, i64 24
  %19 = getelementptr inbounds i8, ptr %3, i64 8
  store i64 0, ptr %19, align 8
  %20 = ptrtoint ptr %1 to i64
  store i64 %20, ptr %3, align 8
  store ptr @"_ZNSt17_Function_handlerIFvmEZZN3nix13copyRecursiveERNS1_14SourceAccessorERKNS1_9CanonPathERNS1_20FileSystemObjectSinkERKNSt7__cxx1112basic_stringIcSt11char_traitsIcESaIcEEEENK3$_0clERNS1_21CreateRegularFileSinkEEUlmE_E9_M_invokeERKSt9_Any_dataOm", ptr %18, align 8
  store ptr @"_ZNSt17_Function_handlerIFvmEZZN3nix13copyRecursiveERNS1_14SourceAccessorERKNS1_9CanonPathERNS1_20FileSystemObjectSinkERKNSt7__cxx1112basic_stringIcSt11char_traitsIcESaIcEEEENK3$_0clERNS1_21CreateRegularFileSinkEEUlmE_E10_M_managerERSt9_Any_dataRKSM_St18_Manager_operation", ptr %17, align 8
  %21 = load ptr, ptr %14, align 8
  %22 = getelementptr inbounds i8, ptr %21, i64 24
  %23 = load ptr, ptr %22, align 8
  invoke void %23(ptr noundef nonnull align 8 dereferenceable(80) %14, ptr noundef nonnull align 8 dereferenceable(32) %16, ptr noundef nonnull align 8 dereferenceable(8) %1, ptr noundef nonnull %3)
          to label %24 unwind label %31

24:                                               ; preds = %12
  %25 = load ptr, ptr %17, align 8
  %.not.i.i.i.i.i = icmp eq ptr %25, null
  br i1 %.not.i.i.i.i.i, label %"_ZSt10__invoke_rIvRZN3nix13copyRecursiveERNS0_14SourceAccessorERKNS0_9CanonPathERNS0_20FileSystemObjectSinkERKNSt7__cxx1112basic_stringIcSt11char_traitsIcESaIcEEEE3$_0JRNS0_21CreateRegularFileSinkEEENSt9enable_ifIX16is_invocable_r_vIT_T0_DpT1_EESL_E4typeEOSM_DpOSN_.exit", label %26

26:                                               ; preds = %24
  %27 = invoke noundef zeroext i1 %25(ptr noundef nonnull align 8 dereferenceable(16) %3, ptr noundef nonnull align 8 dereferenceable(16) %3, i32 noundef 3)
          to label %"_ZSt10__invoke_rIvRZN3nix13copyRecursiveERNS0_14SourceAccessorERKNS0_9CanonPathERNS0_20FileSystemObjectSinkERKNSt7__cxx1112basic_stringIcSt11char_traitsIcESaIcEEEE3$_0JRNS0_21CreateRegularFileSinkEEENSt9enable_ifIX16is_invocable_r_vIT_T0_DpT1_EESL_E4typeEOSM_DpOSN_.exit" unwind label %28

28:                                               ; preds = %26
  %29 = landingpad { ptr, i32 }
          catch ptr null
  %30 = extractvalue { ptr, i32 } %29, 0
  call void @__clang_call_terminate(ptr %30) #29
  unreachable

31:                                               ; preds = %12
  %32 = landingpad { ptr, i32 }
          cleanup
  %33 = load ptr, ptr %17, align 8
  %.not.i.i5.i.i.i = icmp eq ptr %33, null
  br i1 %.not.i.i5.i.i.i, label %_ZNSt8functionIFvmEED2Ev.exit6.i.i.i, label %34

34:                                               ; preds = %31
  %35 = invoke noundef zeroext i1 %33(ptr noundef nonnull align 8 dereferenceable(16) %3, ptr noundef nonnull align 8 dereferenceable(16) %3, i32 noundef 3)
          to label %_ZNSt8functionIFvmEED2Ev.exit6.i.i.i unwind label %36

36:                                               ; preds = %34
  %37 = landingpad { ptr, i32 }
          catch ptr null
  %38 = extractvalue { ptr, i32 } %37, 0
  call void @__clang_call_terminate(ptr %38) #29
  unreachable

_ZNSt8functionIFvmEED2Ev.exit6.i.i.i:             ; preds = %34, %31
  resume { ptr, i32 } %32

"_ZSt10__invoke_rIvRZN3nix13copyRecursiveERNS0_14SourceAccessorERKNS0_9CanonPathERNS0_20FileSystemObjectSinkERKNSt7__cxx1112basic_stringIcSt11char_traitsIcESaIcEEEE3$_0JRNS0_21CreateRegularFileSinkEEENSt9enable_ifIX16is_invocable_r_vIT_T0_DpT1_EESL_E4typeEOSM_DpOSN_.exit": ; preds = %24, %26
  call void @llvm.lifetime.end.p0(i64 32, ptr nonnull %3)
  ret void
}